(dp0
(I12
I2008
I3
tp1
I1
s(I40
I2010
I7
tp2
I3
s(I17
I2008
I8
tp3
I3
s(I0
I2007
I3
tp4
I0
s(I29
I2009
I8
tp5
I2
s(I46
I2011
I1
tp6
I8
s(I10
I2008
I1
tp7
I5
s(I30
I2009
I9
tp8
I4
s(I38
I2010
I5
tp9
I1
s(I44
I2010
I11
tp10
I3
s(I35
I2010
I2
tp11
I3
s(I32
I2009
I11
tp12
I2
s(I21
I2008
I12
tp13
I6
s(I27
I2009
I6
tp14
I3
s(I6
I2007
I9
tp15
I2
s(I9
I2007
I12
tp16
I3
s(I13
I2008
I4
tp17
I1
s(I18
I2008
I9
tp18
I2
s(I23
I2009
I2
tp19
I3
s(I43
I2010
I10
tp20
I1
s(I8
I2007
I11
tp21
I2
s(I26
I2009
I5
tp22
I0
s(I34
I2010
I1
tp23
I2
s(I41
I2010
I8
tp24
I1
s(I42
I2010
I9
tp25
I4
s(I28
I2009
I7
tp26
I2
s(I3
I2007
I6
tp27
I2
s(I2
I2007
I5
tp28
I6
s(I33
I2009
I12
tp29
I2
s(I37
I2010
I4
tp30
I3
s(I19
I2008
I10
tp31
I7
s(I39
I2010
I6
tp32
I0
s(I5
I2007
I8
tp33
I3
s(I36
I2010
I3
tp34
I4
s(I4
I2007
I7
tp35
I4
s(I14
I2008
I5
tp36
I2
s(I22
I2009
I1
tp37
I2
s(I31
I2009
I10
tp38
I2
s(I16
I2008
I7
tp39
I2
s(I25
I2009
I4
tp40
I9
s(I11
I2008
I2
tp41
I1
s(I20
I2008
I11
tp42
I1
s(I7
I2007
I10
tp43
I6
s(I15
I2008
I6
tp44
I2
s(I45
I2010
I12
tp45
I5
s(I1
I2007
I4
tp46
I0
s(I24
I2009
I3
tp47
I3
s.